; ModuleID = 'bench/opencv/original/event.ll'
source_filename = "bench/opencv/original/event.ll"
target datalayout = "e-m:e-p270:32:32-p271:32:32-p272:64:64-i64:64-i128:128-f80:128-n8:16:32:64-S128"
target triple = "x86_64-pc-linux-gnu"

%struct.__va_list_tag = type { i32, i32, ptr, ptr }

; Function Attrs: nounwind uwtable
define hidden range(i32 0, 2) i32 @opj_event_msg(ptr noundef readonly %0, i32 noundef %1, ptr noundef readonly %2, ...) local_unnamed_addr #0 {
  %4 = alloca [1 x %struct.__va_list_tag], align 16
  %5 = alloca [512 x i8], align 16
  %.not = icmp eq ptr %0, null
  br i1 %.not, label %.thread, label %6

6:                                                ; preds = %3
  switch i32 %1, label %.thread [
    i32 1, label %7
    i32 2, label %9
    i32 4, label %12
  ]

7:                                                ; preds = %6
  %8 = getelementptr inbounds nuw i8, ptr %0, i64 24
  br label %15

9:                                                ; preds = %6
  %10 = getelementptr inbounds nuw i8, ptr %0, i64 32
  %11 = getelementptr inbounds nuw i8, ptr %0, i64 8
  br label %15

12:                                               ; preds = %6
  %13 = getelementptr inbounds nuw i8, ptr %0, i64 40
  %14 = getelementptr inbounds nuw i8, ptr %0, i64 16
  br label %15

15:                                               ; preds = %12, %9, %7
  %.015.in = phi ptr [ %13, %12 ], [ %10, %9 ], [ %8, %7 ]
  %.0.in = phi ptr [ %14, %12 ], [ %11, %9 ], [ %0, %7 ]
  %.0 = load ptr, ptr %.0.in, align 8, !tbaa !3
  %.015 = load ptr, ptr %.015.in, align 8, !tbaa !3
  %16 = icmp eq ptr %.015, null
  br i1 %16, label %.thread, label %17

17:                                               ; preds = %15
  %.not19 = icmp eq ptr %2, null
  br i1 %.not19, label %.thread, label %18

18:                                               ; preds = %17
  call void @llvm.lifetime.start.p0(i64 24, ptr nonnull %4) #7
  call void @llvm.lifetime.start.p0(i64 512, ptr nonnull %5) #7
  call void @llvm.memset.p0.i64(ptr noundef nonnull align 16 dereferenceable(512) %5, i8 0, i64 512, i1 false)
  call void @llvm.va_start.p0(ptr nonnull %4)
  %19 = call i32 @vsnprintf(ptr noundef nonnull %5, i64 noundef 512, ptr noundef nonnull %2, ptr noundef nonnull %4) #7
  %20 = getelementptr inbounds nuw i8, ptr %5, i64 511
  store i8 0, ptr %20, align 1, !tbaa !7
  call void @llvm.va_end.p0(ptr nonnull %4)
  call void %.015(ptr noundef nonnull %5, ptr noundef %.0) #7
  call void @llvm.lifetime.end.p0(i64 512, ptr nonnull %5) #7
  call void @llvm.lifetime.end.p0(i64 24, ptr nonnull %4) #7
  br label %.thread

.thread:                                          ; preds = %6, %17, %18, %3, %15
  %.016 = phi i32 [ 0, %15 ], [ 0, %3 ], [ 1, %18 ], [ 1, %17 ], [ 0, %6 ]
  ret i32 %.016
}

; Function Attrs: mustprogress nocallback nofree nosync nounwind willreturn memory(argmem: readwrite)
declare void @llvm.lifetime.start.p0(i64 immarg, ptr captures(none)) #1

; Function Attrs: mustprogress nocallback nofree nounwind willreturn memory(argmem: write)
declare void @llvm.memset.p0.i64(ptr writeonly captures(none), i8, i64, i1 immarg) #2

; Function Attrs: mustprogress nocallback nofree nosync nounwind willreturn
declare void @llvm.va_start.p0(ptr) #3

; Function Attrs: nofree nounwind
declare noundef i32 @vsnprintf(ptr noundef captures(none), i64 noundef, ptr noundef readonly captures(none), ptr noundef) local_unnamed_addr #4

; Function Attrs: mustprogress nocallback nofree nosync nounwind willreturn
declare void @llvm.va_end.p0(ptr) #3

; Function Attrs: mustprogress nocallback nofree nosync nounwind willreturn memory(argmem: readwrite)
declare void @llvm.lifetime.end.p0(i64 immarg, ptr captures(none)) #1

; Function Attrs: mustprogress nofree norecurse nosync nounwind willreturn memory(argmem: write) uwtable
define hidden void @opj_set_default_event_handler(ptr noundef writeonly captures(none) initializes((0, 48)) %0) local_unnamed_addr #5 {
  %2 = getelementptr inbounds nuw i8, ptr %0, i64 24
  tail call void @llvm.memset.p0.i64(ptr noundef nonnull align 8 dereferenceable(24) %0, i8 0, i64 24, i1 false)
  store ptr @opj_default_callback, ptr %2, align 8, !tbaa !8
  %3 = getelementptr inbounds nuw i8, ptr %0, i64 40
  store ptr @opj_default_callback, ptr %3, align 8, !tbaa !10
  %4 = getelementptr inbounds nuw i8, ptr %0, i64 32
  store ptr @opj_default_callback, ptr %4, align 8, !tbaa !11
  ret void
}

; Function Attrs: mustprogress nofree norecurse nosync nounwind willreturn memory(none) uwtable
define internal void @opj_default_callback(ptr readnone captures(none) %0, ptr readnone captures(none) %1) #6 {
  ret void
}


!llvm.module.flags = !{!0, !1, !2}

!0 = !{i32 1, !"wchar_size", i32 4}
!1 = !{i32 8, !"PIC Level", i32 2}
!2 = !{i32 7, !"uwtable", i32 2}
!3 = !{!4, !4, i64 0}
!4 = !{!"any pointer", !5, i64 0}
!5 = !{!"omnipotent char", !6, i64 0}
!6 = !{!"Simple C/C++ TBAA"}
!7 = !{!5, !5, i64 0}
!8 = !{!9, !4, i64 24}
!9 = !{!"opj_event_mgr", !4, i64 0, !4, i64 8, !4, i64 16, !4, i64 24, !4, i64 32, !4, i64 40}
!10 = !{!9, !4, i64 40}
!11 = !{!9, !4, i64 32}
